target datalayout = "e-m:e-p270:32:32-p271:32:32-p272:64:64-i64:64-i128:128-f80:128-n8:16:32:64-S128"
target triple = "x86_64-pc-linux-gnu"

%struct.DdManager = type { %struct.DdNode, ptr, ptr, ptr, ptr, ptr, ptr, ptr, i32, i32, double, double, double, i32, i32, i32, i32, i32, i32, ptr, ptr, %struct.DdSubtable, i32, i32, i32, i32, i32, i32, i32, double, i32, i32, i32, ptr, i64, double, i32, ptr, ptr, ptr, ptr, ptr, ptr, ptr, i32, ptr, ptr, ptr, ptr, ptr, ptr, i32, i32, i32, double, i32, i32, i32, i32, double, double, i32, i32, i32, i32, i32, i32, i32, i32, i32, ptr, ptr, i32, i32, i32, i32, i32, i32, ptr, ptr, ptr, ptr, ptr, ptr, ptr, ptr, i32, i64, i64, i64, i32, i64, i64, double, double, double, double, double, double, i32, ptr, ptr, i64 }
%struct.DdNode = type { i32, i32, ptr, %union.anon, i64 }
%union.anon = type { %struct.DdChildren }
%struct.DdChildren = type { ptr, ptr }
%struct.DdSubtable = type { ptr, i32, i32, i32, i32, i32, i32, i32, i32, i32, i32, i32 }
%struct.ApproxInfo = type { ptr, ptr, ptr, ptr, i32, double, i32, double }
%struct.NodeData = type { double, double, i32, i8, i8, i16, ptr, ptr }
%struct.DdHashTable = type { i32, i32, ptr, ptr, ptr, i32, i32, i32, i32, ptr }

; Function Attrs: nounwind uwtable
define internal i32 @BAapplyBias(ptr noundef %0, ptr noundef %1, ptr noundef %2, ptr noundef %3, ptr noundef %4) #0 {
  %6 = alloca i32, align 4
  %7 = alloca ptr, align 8
  %8 = alloca ptr, align 8
  %9 = alloca ptr, align 8
  %10 = alloca ptr, align 8
  %11 = alloca ptr, align 8
  %12 = alloca ptr, align 8
  %13 = alloca ptr, align 8
  %14 = alloca ptr, align 8
  %15 = alloca ptr, align 8
  %16 = alloca ptr, align 8
  %17 = alloca ptr, align 8
  %18 = alloca ptr, align 8
  %19 = alloca ptr, align 8
  %20 = alloca i32, align 4
  %21 = alloca i32, align 4
  %22 = alloca ptr, align 8
  %23 = alloca i32, align 4
  %24 = alloca i32, align 4
  %25 = alloca i32, align 4
  %26 = alloca i64, align 8
  store ptr %0, ptr %7, align 8, !tbaa !3
  store ptr %1, ptr %8, align 8, !tbaa !8
  store ptr %2, ptr %9, align 8, !tbaa !8
  store ptr %3, ptr %10, align 8, !tbaa !33
  store ptr %4, ptr %11, align 8, !tbaa !46
  call void @llvm.lifetime.start.p0(i64 8, ptr %12) #7
  call void @llvm.lifetime.start.p0(i64 8, ptr %13) #7
  call void @llvm.lifetime.start.p0(i64 8, ptr %14) #7
  call void @llvm.lifetime.start.p0(i64 8, ptr %15) #7
  call void @llvm.lifetime.start.p0(i64 8, ptr %16) #7
  call void @llvm.lifetime.start.p0(i64 8, ptr %17) #7
  call void @llvm.lifetime.start.p0(i64 8, ptr %18) #7
  call void @llvm.lifetime.start.p0(i64 8, ptr %19) #7
  call void @llvm.lifetime.start.p0(i64 4, ptr %20) #7
  call void @llvm.lifetime.start.p0(i64 4, ptr %21) #7
  call void @llvm.lifetime.start.p0(i64 8, ptr %22) #7
  call void @llvm.lifetime.start.p0(i64 4, ptr %23) #7
  call void @llvm.lifetime.start.p0(i64 4, ptr %24) #7
  %27 = load ptr, ptr %7, align 8, !tbaa !3
  %28 = getelementptr inbounds nuw %struct.DdManager, ptr %27, i32 0, i32 1
  %29 = load ptr, ptr %28, align 8, !tbaa !50
  store ptr %29, ptr %12, align 8, !tbaa !8
  %30 = load ptr, ptr %12, align 8, !tbaa !8
  %31 = ptrtoint ptr %30 to i64
  %32 = xor i64 %31, 1
  %33 = inttoptr i64 %32 to ptr
  store ptr %33, ptr %13, align 8, !tbaa !8
  %34 = load ptr, ptr %10, align 8, !tbaa !33
  %35 = getelementptr inbounds nuw %struct.ApproxInfo, ptr %34, i32 0, i32 3
  %36 = load ptr, ptr %35, align 8, !tbaa !40
  %37 = load ptr, ptr %8, align 8, !tbaa !8
  %38 = call i32 @st__lookup(ptr noundef %36, ptr noundef %37, ptr noundef %22)
  %39 = icmp ne i32 %38, 0
  br i1 %39, label %41, label %40

40:                                               ; preds = %5
  store i32 3, ptr %6, align 4
  store i32 1, ptr %25, align 4
  br label %263

41:                                               ; preds = %5
  %42 = load ptr, ptr %8, align 8, !tbaa !8
  %43 = load ptr, ptr %12, align 8, !tbaa !8
  %44 = icmp eq ptr %42, %43
  br i1 %44, label %45, label %46

45:                                               ; preds = %41
  store i32 2, ptr %6, align 4
  store i32 1, ptr %25, align 4
  br label %263

46:                                               ; preds = %41
  %47 = load ptr, ptr %9, align 8, !tbaa !8
  %48 = load ptr, ptr %13, align 8, !tbaa !8
  %49 = icmp eq ptr %47, %48
  br i1 %49, label %50, label %55

50:                                               ; preds = %46
  %51 = load ptr, ptr %22, align 8, !tbaa !57
  %52 = getelementptr inbounds nuw %struct.NodeData, ptr %51, i32 0, i32 3
  %53 = load i8, ptr %52, align 4, !tbaa !84
  %54 = sext i8 %53 to i32
  store i32 %54, ptr %6, align 4
  store i32 1, ptr %25, align 4
  br label %263

55:                                               ; preds = %46
  %56 = load ptr, ptr %22, align 8, !tbaa !57
  %57 = getelementptr inbounds nuw %struct.NodeData, ptr %56, i32 0, i32 3
  %58 = load i8, ptr %57, align 4, !tbaa !84
  %59 = sext i8 %58 to i32
  %60 = icmp eq i32 %59, 2
  br i1 %60, label %61, label %62

61:                                               ; preds = %55
  store i32 2, ptr %6, align 4
  store i32 1, ptr %25, align 4
  br label %263

62:                                               ; preds = %55
  %63 = load ptr, ptr %8, align 8, !tbaa !8
  %64 = getelementptr inbounds nuw %struct.DdNode, ptr %63, i32 0, i32 1
  %65 = load i32, ptr %64, align 4, !tbaa !82
  %66 = icmp ne i32 %65, 1
  br i1 %66, label %75, label %67

67:                                               ; preds = %62
  %68 = load ptr, ptr %9, align 8, !tbaa !8
  %69 = ptrtoint ptr %68 to i64
  %70 = and i64 %69, -2
  %71 = inttoptr i64 %70 to ptr
  %72 = getelementptr inbounds nuw %struct.DdNode, ptr %71, i32 0, i32 1
  %73 = load i32, ptr %72, align 4, !tbaa !82
  %74 = icmp ne i32 %73, 1
  br i1 %74, label %75, label %105

75:                                               ; preds = %67, %62
  %76 = load ptr, ptr %11, align 8, !tbaa !46
  %77 = load ptr, ptr %8, align 8, !tbaa !8
  %78 = load ptr, ptr %9, align 8, !tbaa !8
  %79 = call ptr @cuddHashTableLookup2(ptr noundef %76, ptr noundef %77, ptr noundef %78)
  store ptr %79, ptr %14, align 8, !tbaa !8
  %80 = icmp ne ptr %79, null
  br i1 %80, label %81, label %105

81:                                               ; preds = %75
  %82 = load ptr, ptr %14, align 8, !tbaa !8
  %83 = getelementptr inbounds nuw %struct.DdNode, ptr %82, i32 0, i32 1
  %84 = load i32, ptr %83, align 4, !tbaa !82
  %85 = icmp eq i32 %84, 0
  br i1 %85, label %86, label %100

86:                                               ; preds = %81
  %87 = load ptr, ptr %11, align 8, !tbaa !46
  %88 = getelementptr inbounds nuw %struct.DdHashTable, ptr %87, i32 0, i32 9
  %89 = load ptr, ptr %88, align 8, !tbaa !85
  %90 = getelementptr inbounds nuw %struct.DdManager, ptr %89, i32 0, i32 25
  %91 = load i32, ptr %90, align 4, !tbaa !89
  %92 = add i32 %91, 1
  store i32 %92, ptr %90, align 4, !tbaa !89
  %93 = load ptr, ptr %11, align 8, !tbaa !46
  %94 = getelementptr inbounds nuw %struct.DdHashTable, ptr %93, i32 0, i32 9
  %95 = load ptr, ptr %94, align 8, !tbaa !85
  %96 = getelementptr inbounds nuw %struct.DdManager, ptr %95, i32 0, i32 21
  %97 = getelementptr inbounds nuw %struct.DdSubtable, ptr %96, i32 0, i32 5
  %98 = load i32, ptr %97, align 8, !tbaa !90
  %99 = add i32 %98, 1
  store i32 %99, ptr %97, align 8, !tbaa !90
  br label %100

100:                                              ; preds = %86, %81
  %101 = load ptr, ptr %22, align 8, !tbaa !57
  %102 = getelementptr inbounds nuw %struct.NodeData, ptr %101, i32 0, i32 3
  %103 = load i8, ptr %102, align 4, !tbaa !84
  %104 = sext i8 %103 to i32
  store i32 %104, ptr %6, align 4
  store i32 1, ptr %25, align 4
  br label %263

105:                                              ; preds = %75, %67
  %106 = load ptr, ptr %7, align 8, !tbaa !3
  %107 = getelementptr inbounds nuw %struct.DdManager, ptr %106, i32 0, i32 37
  %108 = load ptr, ptr %107, align 8, !tbaa !65
  %109 = load ptr, ptr %8, align 8, !tbaa !8
  %110 = getelementptr inbounds nuw %struct.DdNode, ptr %109, i32 0, i32 0
  %111 = load i32, ptr %110, align 8, !tbaa !32
  %112 = zext i32 %111 to i64
  %113 = getelementptr inbounds nuw i32, ptr %108, i64 %112
  %114 = load i32, ptr %113, align 4, !tbaa !10
  store i32 %114, ptr %20, align 4, !tbaa !10
  %115 = load ptr, ptr %9, align 8, !tbaa !8
  %116 = ptrtoint ptr %115 to i64
  %117 = and i64 %116, -2
  %118 = inttoptr i64 %117 to ptr
  store ptr %118, ptr %17, align 8, !tbaa !8
  %119 = load ptr, ptr %17, align 8, !tbaa !8
  %120 = getelementptr inbounds nuw %struct.DdNode, ptr %119, i32 0, i32 0
  %121 = load i32, ptr %120, align 8, !tbaa !32
  %122 = icmp eq i32 %121, 2147483647
  br i1 %122, label %123, label %127

123:                                              ; preds = %105
  %124 = load ptr, ptr %17, align 8, !tbaa !8
  %125 = getelementptr inbounds nuw %struct.DdNode, ptr %124, i32 0, i32 0
  %126 = load i32, ptr %125, align 8, !tbaa !32
  br label %137

127:                                              ; preds = %105
  %128 = load ptr, ptr %7, align 8, !tbaa !3
  %129 = getelementptr inbounds nuw %struct.DdManager, ptr %128, i32 0, i32 37
  %130 = load ptr, ptr %129, align 8, !tbaa !65
  %131 = load ptr, ptr %17, align 8, !tbaa !8
  %132 = getelementptr inbounds nuw %struct.DdNode, ptr %131, i32 0, i32 0
  %133 = load i32, ptr %132, align 8, !tbaa !32
  %134 = zext i32 %133 to i64
  %135 = getelementptr inbounds nuw i32, ptr %130, i64 %134
  %136 = load i32, ptr %135, align 4, !tbaa !10
  br label %137

137:                                              ; preds = %127, %123
  %138 = phi i32 [ %126, %123 ], [ %136, %127 ]
  store i32 %138, ptr %21, align 4, !tbaa !10
  %139 = load i32, ptr %20, align 4, !tbaa !10
  %140 = load i32, ptr %21, align 4, !tbaa !10
  %141 = icmp ule i32 %139, %140
  br i1 %141, label %142, label %151

142:                                              ; preds = %137
  %143 = load ptr, ptr %8, align 8, !tbaa !8
  %144 = getelementptr inbounds nuw %struct.DdNode, ptr %143, i32 0, i32 3
  %145 = getelementptr inbounds nuw %struct.DdChildren, ptr %144, i32 0, i32 0
  %146 = load ptr, ptr %145, align 8, !tbaa !79
  store ptr %146, ptr %15, align 8, !tbaa !8
  %147 = load ptr, ptr %8, align 8, !tbaa !8
  %148 = getelementptr inbounds nuw %struct.DdNode, ptr %147, i32 0, i32 3
  %149 = getelementptr inbounds nuw %struct.DdChildren, ptr %148, i32 0, i32 1
  %150 = load ptr, ptr %149, align 8, !tbaa !79
  store ptr %150, ptr %16, align 8, !tbaa !8
  br label %153

151:                                              ; preds = %137
  %152 = load ptr, ptr %8, align 8, !tbaa !8
  store ptr %152, ptr %16, align 8, !tbaa !8
  store ptr %152, ptr %15, align 8, !tbaa !8
  br label %153

153:                                              ; preds = %151, %142
  %154 = load i32, ptr %21, align 4, !tbaa !10
  %155 = load i32, ptr %20, align 4, !tbaa !10
  %156 = icmp ule i32 %154, %155
  br i1 %156, label %157, label %181

157:                                              ; preds = %153
  %158 = load ptr, ptr %17, align 8, !tbaa !8
  %159 = getelementptr inbounds nuw %struct.DdNode, ptr %158, i32 0, i32 3
  %160 = getelementptr inbounds nuw %struct.DdChildren, ptr %159, i32 0, i32 0
  %161 = load ptr, ptr %160, align 8, !tbaa !79
  store ptr %161, ptr %18, align 8, !tbaa !8
  %162 = load ptr, ptr %17, align 8, !tbaa !8
  %163 = getelementptr inbounds nuw %struct.DdNode, ptr %162, i32 0, i32 3
  %164 = getelementptr inbounds nuw %struct.DdChildren, ptr %163, i32 0, i32 1
  %165 = load ptr, ptr %164, align 8, !tbaa !79
  store ptr %165, ptr %19, align 8, !tbaa !8
  %166 = load ptr, ptr %9, align 8, !tbaa !8
  %167 = ptrtoint ptr %166 to i64
  %168 = and i64 %167, 1
  %169 = trunc i64 %168 to i32
  %170 = icmp ne i32 %169, 0
  br i1 %170, label %171, label %180

171:                                              ; preds = %157
  %172 = load ptr, ptr %18, align 8, !tbaa !8
  %173 = ptrtoint ptr %172 to i64
  %174 = xor i64 %173, 1
  %175 = inttoptr i64 %174 to ptr
  store ptr %175, ptr %18, align 8, !tbaa !8
  %176 = load ptr, ptr %19, align 8, !tbaa !8
  %177 = ptrtoint ptr %176 to i64
  %178 = xor i64 %177, 1
  %179 = inttoptr i64 %178 to ptr
  store ptr %179, ptr %19, align 8, !tbaa !8
  br label %180

180:                                              ; preds = %171, %157
  br label %183

181:                                              ; preds = %153
  %182 = load ptr, ptr %9, align 8, !tbaa !8
  store ptr %182, ptr %19, align 8, !tbaa !8
  store ptr %182, ptr %18, align 8, !tbaa !8
  br label %183

183:                                              ; preds = %181, %180
  %184 = load ptr, ptr %7, align 8, !tbaa !3
  %185 = load ptr, ptr %15, align 8, !tbaa !8
  %186 = load ptr, ptr %18, align 8, !tbaa !8
  %187 = load ptr, ptr %10, align 8, !tbaa !33
  %188 = load ptr, ptr %11, align 8, !tbaa !46
  %189 = call i32 @BAapplyBias(ptr noundef %184, ptr noundef %185, ptr noundef %186, ptr noundef %187, ptr noundef %188)
  store i32 %189, ptr %23, align 4, !tbaa !10
  %190 = load i32, ptr %23, align 4, !tbaa !10
  %191 = icmp eq i32 %190, 3
  br i1 %191, label %192, label %193

192:                                              ; preds = %183
  store i32 3, ptr %6, align 4
  store i32 1, ptr %25, align 4
  br label %263

193:                                              ; preds = %183
  %194 = load ptr, ptr %7, align 8, !tbaa !3
  %195 = load ptr, ptr %16, align 8, !tbaa !8
  %196 = ptrtoint ptr %195 to i64
  %197 = and i64 %196, -2
  %198 = inttoptr i64 %197 to ptr
  %199 = load ptr, ptr %19, align 8, !tbaa !8
  %200 = load ptr, ptr %10, align 8, !tbaa !33
  %201 = load ptr, ptr %11, align 8, !tbaa !46
  %202 = call i32 @BAapplyBias(ptr noundef %194, ptr noundef %198, ptr noundef %199, ptr noundef %200, ptr noundef %201)
  store i32 %202, ptr %24, align 4, !tbaa !10
  %203 = load i32, ptr %24, align 4, !tbaa !10
  %204 = icmp eq i32 %203, 3
  br i1 %204, label %205, label %206

205:                                              ; preds = %193
  store i32 3, ptr %6, align 4
  store i32 1, ptr %25, align 4
  br label %263

206:                                              ; preds = %193
  %207 = load i32, ptr %23, align 4, !tbaa !10
  %208 = icmp eq i32 %207, 2
  br i1 %208, label %209, label %215

209:                                              ; preds = %206
  %210 = load i32, ptr %24, align 4, !tbaa !10
  %211 = icmp eq i32 %210, 2
  br i1 %211, label %212, label %215

212:                                              ; preds = %209
  %213 = load ptr, ptr %22, align 8, !tbaa !57
  %214 = getelementptr inbounds nuw %struct.NodeData, ptr %213, i32 0, i32 3
  store i8 2, ptr %214, align 4, !tbaa !84
  br label %218

215:                                              ; preds = %209, %206
  %216 = load ptr, ptr %22, align 8, !tbaa !57
  %217 = getelementptr inbounds nuw %struct.NodeData, ptr %216, i32 0, i32 3
  store i8 1, ptr %217, align 4, !tbaa !84
  br label %218

218:                                              ; preds = %215, %212
  %219 = load ptr, ptr %8, align 8, !tbaa !8
  %220 = getelementptr inbounds nuw %struct.DdNode, ptr %219, i32 0, i32 1
  %221 = load i32, ptr %220, align 4, !tbaa !82
  %222 = icmp ne i32 %221, 1
  br i1 %222, label %231, label %223

223:                                              ; preds = %218
  %224 = load ptr, ptr %9, align 8, !tbaa !8
  %225 = ptrtoint ptr %224 to i64
  %226 = and i64 %225, -2
  %227 = inttoptr i64 %226 to ptr
  %228 = getelementptr inbounds nuw %struct.DdNode, ptr %227, i32 0, i32 1
  %229 = load i32, ptr %228, align 4, !tbaa !82
  %230 = icmp ne i32 %229, 1
  br i1 %230, label %231, label %258

231:                                              ; preds = %223, %218
  call void @llvm.lifetime.start.p0(i64 8, ptr %26) #7
  %232 = load ptr, ptr %8, align 8, !tbaa !8
  %233 = getelementptr inbounds nuw %struct.DdNode, ptr %232, i32 0, i32 1
  %234 = load i32, ptr %233, align 4, !tbaa !82
  %235 = zext i32 %234 to i64
  %236 = load ptr, ptr %9, align 8, !tbaa !8
  %237 = ptrtoint ptr %236 to i64
  %238 = and i64 %237, -2
  %239 = inttoptr i64 %238 to ptr
  %240 = getelementptr inbounds nuw %struct.DdNode, ptr %239, i32 0, i32 1
  %241 = load i32, ptr %240, align 4, !tbaa !82
  %242 = zext i32 %241 to i64
  %243 = mul nsw i64 %235, %242
  store i64 %243, ptr %26, align 8, !tbaa !91
  %244 = load i64, ptr %26, align 8, !tbaa !91
  %245 = add nsw i64 %244, -1
  store i64 %245, ptr %26, align 8, !tbaa !91
  %246 = load ptr, ptr %11, align 8, !tbaa !46
  %247 = load ptr, ptr %8, align 8, !tbaa !8
  %248 = load ptr, ptr %9, align 8, !tbaa !8
  %249 = load ptr, ptr %12, align 8, !tbaa !8
  %250 = load i64, ptr %26, align 8, !tbaa !91
  %251 = call i32 @cuddHashTableInsert2(ptr noundef %246, ptr noundef %247, ptr noundef %248, ptr noundef %249, i64 noundef %250)
  %252 = icmp ne i32 %251, 0
  br i1 %252, label %254, label %253

253:                                              ; preds = %231
  store i32 3, ptr %6, align 4
  store i32 1, ptr %25, align 4
  br label %255

254:                                              ; preds = %231
  store i32 0, ptr %25, align 4
  br label %255

255:                                              ; preds = %254, %253
  call void @llvm.lifetime.end.p0(i64 8, ptr %26) #7
  %256 = load i32, ptr %25, align 4
  switch i32 %256, label %263 [
    i32 0, label %257
  ]

257:                                              ; preds = %255
  br label %258

258:                                              ; preds = %257, %223
  %259 = load ptr, ptr %22, align 8, !tbaa !57
  %260 = getelementptr inbounds nuw %struct.NodeData, ptr %259, i32 0, i32 3
  %261 = load i8, ptr %260, align 4, !tbaa !84
  %262 = sext i8 %261 to i32
  store i32 %262, ptr %6, align 4
  store i32 1, ptr %25, align 4
  br label %263

263:                                              ; preds = %258, %255, %205, %192, %100, %61, %50, %45, %40
  call void @llvm.lifetime.end.p0(i64 4, ptr %24) #7
  call void @llvm.lifetime.end.p0(i64 4, ptr %23) #7
  call void @llvm.lifetime.end.p0(i64 8, ptr %22) #7
  call void @llvm.lifetime.end.p0(i64 4, ptr %21) #7
  call void @llvm.lifetime.end.p0(i64 4, ptr %20) #7
  call void @llvm.lifetime.end.p0(i64 8, ptr %19) #7
  call void @llvm.lifetime.end.p0(i64 8, ptr %18) #7
  call void @llvm.lifetime.end.p0(i64 8, ptr %17) #7
  call void @llvm.lifetime.end.p0(i64 8, ptr %16) #7
  call void @llvm.lifetime.end.p0(i64 8, ptr %15) #7
  call void @llvm.lifetime.end.p0(i64 8, ptr %14) #7
  call void @llvm.lifetime.end.p0(i64 8, ptr %13) #7
  call void @llvm.lifetime.end.p0(i64 8, ptr %12) #7
  %264 = load i32, ptr %6, align 4
  ret i32 %264
}