; Function Attrs: nounwind uwtable
define internal fastcc range(i32 -128, 128) i32 @BAapplyBias(ptr noundef %0, ptr noundef %1, ptr noundef %2, ptr noundef nonnull %3, ptr noundef %4) unnamed_addr #0 {
  %6 = alloca ptr, align 8
  call void @llvm.lifetime.start.p0(i64 8, ptr nonnull %6) #10
  %7 = getelementptr inbounds nuw i8, ptr %0, i64 40
  %8 = load ptr, ptr %7, align 8, !tbaa !69
  %9 = ptrtoint ptr %8 to i64
  %10 = xor i64 %9, 1
  %11 = inttoptr i64 %10 to ptr
  %12 = getelementptr inbounds nuw i8, ptr %3, i64 24
  %13 = load ptr, ptr %12, align 8, !tbaa !46
  %14 = call i32 @st__lookup(ptr noundef %13, ptr noundef %1, ptr noundef nonnull %6) #10
  %.not = icmp eq i32 %14, 0
  br i1 %.not, label %116, label %15

15:                                               ; preds = %5
  %16 = icmp eq ptr %1, %8
  br i1 %16, label %116, label %17

17:                                               ; preds = %15
  %18 = icmp eq ptr %2, %11
  %19 = load ptr, ptr %6, align 8, !tbaa !47
  %20 = getelementptr inbounds nuw i8, ptr %19, i64 20
  %21 = load i8, ptr %20, align 4, !tbaa !65
  br i1 %18, label %22, label %24

22:                                               ; preds = %17
  %23 = sext i8 %21 to i32
  br label %116

24:                                               ; preds = %17
  %25 = icmp eq i8 %21, 2
  br i1 %25, label %116, label %26

26:                                               ; preds = %24
  %27 = getelementptr inbounds nuw i8, ptr %1, i64 4
  %28 = load i32, ptr %27, align 4, !tbaa !75
  %.not74 = icmp eq i32 %28, 1
  br i1 %.not74, label %29, label %35

29:                                               ; preds = %26
  %30 = ptrtoint ptr %2 to i64
  %31 = and i64 %30, -2
  %32 = inttoptr i64 %31 to ptr
  %33 = getelementptr inbounds nuw i8, ptr %32, i64 4
  %34 = load i32, ptr %33, align 4, !tbaa !75
  %.not75 = icmp eq i32 %34, 1
  br i1 %.not75, label %55, label %35

35:                                               ; preds = %29, %26
  %36 = call ptr @cuddHashTableLookup2(ptr noundef %4, ptr noundef nonnull %1, ptr noundef %2) #10
  %.not76 = icmp eq ptr %36, null
  br i1 %.not76, label %._crit_edge85, label %37

._crit_edge85:                                    ; preds = %35
  %.pre86 = ptrtoint ptr %2 to i64
  %.pre87 = and i64 %.pre86, -2
  %.pre89 = inttoptr i64 %.pre87 to ptr
  br label %55

37:                                               ; preds = %35
  %38 = getelementptr inbounds nuw i8, ptr %36, i64 4
  %39 = load i32, ptr %38, align 4, !tbaa !75
  %40 = icmp eq i32 %39, 0
  br i1 %40, label %41, label %50

41:                                               ; preds = %37
  %42 = getelementptr inbounds nuw i8, ptr %4, i64 48
  %43 = load ptr, ptr %42, align 8, !tbaa !76
  %44 = getelementptr inbounds nuw i8, ptr %43, i64 236
  %45 = load i32, ptr %44, align 4, !tbaa !81
  %46 = add i32 %45, 1
  store i32 %46, ptr %44, align 4, !tbaa !81
  %47 = getelementptr inbounds nuw i8, ptr %43, i64 192
  %48 = load i32, ptr %47, align 8, !tbaa !82
  %49 = add i32 %48, 1
  store i32 %49, ptr %47, align 8, !tbaa !82
  br label %50

50:                                               ; preds = %41, %37
  %51 = load ptr, ptr %6, align 8, !tbaa !47
  %52 = getelementptr inbounds nuw i8, ptr %51, i64 20
  %53 = load i8, ptr %52, align 4, !tbaa !65
  %54 = sext i8 %53 to i32
  br label %116

55:                                               ; preds = %._crit_edge85, %29
  %.pre-phi90 = phi ptr [ %.pre89, %._crit_edge85 ], [ %32, %29 ]
  %.pre-phi = phi i64 [ %.pre86, %._crit_edge85 ], [ %30, %29 ]
  %56 = getelementptr inbounds nuw i8, ptr %0, i64 312
  %57 = load ptr, ptr %56, align 8, !tbaa !35
  %58 = load i32, ptr %1, align 8, !tbaa !27
  %59 = zext i32 %58 to i64
  %60 = getelementptr inbounds nuw i32, ptr %57, i64 %59
  %61 = load i32, ptr %60, align 4, !tbaa !36
  %62 = load i32, ptr %.pre-phi90, align 8, !tbaa !27
  %63 = icmp eq i32 %62, 2147483647
  br i1 %63, label %68, label %64

64:                                               ; preds = %55
  %65 = zext i32 %62 to i64
  %66 = getelementptr inbounds nuw i32, ptr %57, i64 %65
  %67 = load i32, ptr %66, align 4, !tbaa !36
  br label %68

68:                                               ; preds = %55, %64
  %69 = phi i32 [ %67, %64 ], [ 2147483647, %55 ]
  %.not77 = icmp ugt i32 %61, %69
  br i1 %.not77, label %75, label %70

70:                                               ; preds = %68
  %71 = getelementptr inbounds nuw i8, ptr %1, i64 16
  %72 = load ptr, ptr %71, align 8, !tbaa !56
  %73 = getelementptr inbounds nuw i8, ptr %1, i64 24
  %74 = load ptr, ptr %73, align 8, !tbaa !56
  br label %75

75:                                               ; preds = %68, %70
  %.064 = phi ptr [ %74, %70 ], [ %1, %68 ]
  %.063 = phi ptr [ %72, %70 ], [ %1, %68 ]
  %.not78 = icmp ugt i32 %69, %61
  br i1 %.not78, label %89, label %76

76:                                               ; preds = %75
  %77 = getelementptr inbounds nuw i8, ptr %.pre-phi90, i64 16
  %78 = load ptr, ptr %77, align 8, !tbaa !56
  %79 = getelementptr inbounds nuw i8, ptr %.pre-phi90, i64 24
  %80 = load ptr, ptr %79, align 8, !tbaa !56
  %81 = and i64 %.pre-phi, 1
  %.not79 = icmp eq i64 %81, 0
  br i1 %.not79, label %89, label %82

82:                                               ; preds = %76
  %83 = ptrtoint ptr %78 to i64
  %84 = xor i64 %83, 1
  %85 = inttoptr i64 %84 to ptr
  %86 = ptrtoint ptr %80 to i64
  %87 = xor i64 %86, 1
  %88 = inttoptr i64 %87 to ptr
  br label %89

89:                                               ; preds = %75, %76, %82
  %.066 = phi ptr [ %88, %82 ], [ %80, %76 ], [ %2, %75 ]
  %.065 = phi ptr [ %85, %82 ], [ %78, %76 ], [ %2, %75 ]
  %90 = call fastcc i32 @BAapplyBias(ptr noundef nonnull %0, ptr noundef %.063, ptr noundef %.065, ptr noundef %3, ptr noundef %4)
  %91 = icmp eq i32 %90, 3
  br i1 %91, label %116, label %92

92:                                               ; preds = %89
  %93 = ptrtoint ptr %.064 to i64
  %94 = and i64 %93, -2
  %95 = inttoptr i64 %94 to ptr
  %96 = call fastcc i32 @BAapplyBias(ptr noundef nonnull %0, ptr noundef %95, ptr noundef %.066, ptr noundef %3, ptr noundef %4)
  %97 = icmp eq i32 %96, 3
  br i1 %97, label %116, label %98

98:                                               ; preds = %92
  %99 = icmp eq i32 %90, 2
  %100 = icmp eq i32 %96, 2
  %or.cond = and i1 %99, %100
  %101 = load ptr, ptr %6, align 8, !tbaa !47
  %102 = getelementptr inbounds nuw i8, ptr %101, i64 20
  %. = select i1 %or.cond, i8 2, i8 1
  store i8 %., ptr %102, align 4, !tbaa !65
  %103 = load i32, ptr %27, align 4, !tbaa !75
  %.not80 = icmp eq i32 %103, 1
  %104 = getelementptr inbounds nuw i8, ptr %.pre-phi90, i64 4
  %105 = load i32, ptr %104, align 4, !tbaa !75
  %.not81 = icmp eq i32 %105, 1
  %or.cond91 = select i1 %.not80, i1 %.not81, i1 false
  br i1 %or.cond91, label %111, label %._crit_edge

._crit_edge:                                      ; preds = %98
  %106 = zext i32 %103 to i64
  %107 = zext i32 %105 to i64
  %108 = mul nuw nsw i64 %107, %106
  %109 = add nsw i64 %108, -1
  %110 = call i32 @cuddHashTableInsert2(ptr noundef %4, ptr noundef nonnull %1, ptr noundef %2, ptr noundef %8, i64 noundef %109) #10
  %.not82.not = icmp eq i32 %110, 0
  br i1 %.not82.not, label %116, label %._crit_edge83

._crit_edge83:                                    ; preds = %._crit_edge
  %.pre84 = load ptr, ptr %6, align 8, !tbaa !47
  br label %111

111:                                              ; preds = %98, %._crit_edge83
  %112 = phi ptr [ %.pre84, %._crit_edge83 ], [ %101, %98 ]
  %113 = getelementptr inbounds nuw i8, ptr %112, i64 20
  %114 = load i8, ptr %113, align 4, !tbaa !65
  %115 = sext i8 %114 to i32
  br label %116

116:                                              ; preds = %92, %89, %24, %15, %5, %._crit_edge, %111, %50, %22
  %.0 = phi i32 [ %23, %22 ], [ %54, %50 ], [ %115, %111 ], [ 3, %._crit_edge ], [ 3, %5 ], [ 2, %15 ], [ 2, %24 ], [ 3, %89 ], [ 3, %92 ]
  call void @llvm.lifetime.end.p0(i64 8, ptr nonnull %6) #10
  ret i32 %.0
}